target datalayout = "e-m:e-p270:32:32-p271:32:32-p272:64:64-i64:64-i128:128-f80:128-n8:16:32:64-S128"
target triple = "x86_64-pc-linux-gnu"

%struct.psset_s = type { [64 x %struct.hpdata_age_heap_t], [1 x i64], %struct.psset_bin_stats_s, %struct.psset_stats_s, %struct.hpdata_empty_list_t, [128 x %struct.hpdata_purge_list_t], [2 x i64], %struct.hpdata_hugify_list_t }
%struct.hpdata_age_heap_t = type { %struct.ph_s }
%struct.ph_s = type { ptr, i64 }
%struct.psset_bin_stats_s = type { i64, i64, i64 }
%struct.psset_stats_s = type { [64 x [2 x %struct.psset_bin_stats_s]], [2 x %struct.psset_bin_stats_s], [2 x %struct.psset_bin_stats_s] }
%struct.hpdata_empty_list_t = type { %struct.anon }
%struct.anon = type { ptr }
%struct.hpdata_purge_list_t = type { %struct.anon.0 }
%struct.anon.0 = type { ptr }
%struct.hpdata_hugify_list_t = type { %struct.anon.1 }
%struct.anon.1 = type { ptr }
%struct.hpdata_s = type { ptr, i64, i8, i8, i8, i8, i8, %struct.nstime_t, i8, i8, i8, i8, i8, %union.anon, %struct.anon.3, %struct.anon.4, i64, i64, [8 x i64], i64, [8 x i64] }
%struct.nstime_t = type { i64 }
%union.anon = type { %struct.hpdata_age_heap_link_t }
%struct.hpdata_age_heap_link_t = type { %struct.phn_link_s }
%struct.phn_link_s = type { ptr, ptr, ptr }
%struct.anon.3 = type { ptr, ptr }
%struct.anon.4 = type { ptr, ptr }

; Function Attrs: inlinehint nounwind uwtable
define internal i32 @fls_lu(i64 noundef %0) #3 {
  %2 = alloca i64, align 8
  store i64 %0, ptr %2, align 8, !tbaa !12
  %3 = load i64, ptr %2, align 8, !tbaa !12
  %4 = icmp ne i64 %3, 0
  call void @llvm.assume(i1 %4)
  %5 = load i64, ptr %2, align 8, !tbaa !12
  %6 = call i64 @llvm.ctlz.i64(i64 %5, i1 true)
  %7 = trunc i64 %6 to i32
  %8 = sext i32 %7 to i64
  %9 = xor i64 63, %8
  %10 = trunc i64 %9 to i32
  ret i32 %10
}

; Function Attrs: inlinehint nounwind uwtable
define internal i32 @fls_u64(i64 noundef %0) #3 {
  %2 = alloca i64, align 8
  store i64 %0, ptr %2, align 8, !tbaa !12
  %3 = load i64, ptr %2, align 8, !tbaa !12
  %4 = call i32 @fls_lu(i64 noundef %3)
  ret i32 %4
}

; Function Attrs: inlinehint nounwind uwtable
define internal i32 @lg_floor(i64 noundef %0) #3 {
  %2 = alloca i64, align 8
  store i64 %0, ptr %2, align 8, !tbaa !12
  %3 = load i64, ptr %2, align 8, !tbaa !12
  %4 = icmp ne i64 %3, 0
  call void @llvm.assume(i1 %4)
  %5 = load i64, ptr %2, align 8, !tbaa !12
  %6 = call i32 @fls_u64(i64 noundef %5)
  ret i32 %6
}

; Function Attrs: inlinehint nounwind uwtable
define internal i32 @lg_ceil(i64 noundef %0) #3 {
  %2 = alloca i64, align 8
  store i64 %0, ptr %2, align 8, !tbaa !12
  %3 = load i64, ptr %2, align 8, !tbaa !12
  %4 = call i32 @lg_floor(i64 noundef %3)
  %5 = load i64, ptr %2, align 8, !tbaa !12
  %6 = load i64, ptr %2, align 8, !tbaa !12
  %7 = sub i64 %6, 1
  %8 = and i64 %5, %7
  %9 = icmp eq i64 %8, 0
  %10 = select i1 %9, i32 0, i32 1
  %11 = add i32 %4, %10
  ret i32 %11
}

; Function Attrs: inlinehint nounwind uwtable
define internal i64 @hpdata_ndirty_get(ptr noundef %0) #3 {
  %2 = alloca ptr, align 8
  store ptr %0, ptr %2, align 8, !tbaa !27
  %3 = load ptr, ptr %2, align 8, !tbaa !27
  %4 = getelementptr inbounds nuw %struct.hpdata_s, ptr %3, i32 0, i32 19
  %5 = load i64, ptr %4, align 8, !tbaa !50
  %6 = load ptr, ptr %2, align 8, !tbaa !27
  %7 = getelementptr inbounds nuw %struct.hpdata_s, ptr %6, i32 0, i32 17
  %8 = load i64, ptr %7, align 8, !tbaa !43
  %9 = sub i64 %5, %8
  ret i64 %9
}

; Function Attrs: inlinehint nounwind uwtable
define internal i64 @hpdata_nactive_get(ptr noundef %0) #3 {
  %2 = alloca ptr, align 8
  store ptr %0, ptr %2, align 8, !tbaa !27
  %3 = load ptr, ptr %2, align 8, !tbaa !27
  %4 = getelementptr inbounds nuw %struct.hpdata_s, ptr %3, i32 0, i32 17
  %5 = load i64, ptr %4, align 8, !tbaa !43
  ret i64 %5
}

; Function Attrs: inlinehint nounwind uwtable
define internal zeroext i1 @hpdata_huge_get(ptr noundef %0) #3 {
  %2 = alloca ptr, align 8
  store ptr %0, ptr %2, align 8, !tbaa !27
  %3 = load ptr, ptr %2, align 8, !tbaa !27
  %4 = getelementptr inbounds nuw %struct.hpdata_s, ptr %3, i32 0, i32 2
  %5 = load i8, ptr %4, align 8, !tbaa !49, !range !30, !noundef !31
  %6 = trunc i8 %5 to i1
  ret i1 %6
}

; Function Attrs: alwaysinline nounwind uwtable
define internal i32 @sz_psz2ind(i64 noundef %0) #5 {
  %2 = alloca i32, align 4
  %3 = alloca i64, align 8
  %4 = alloca i32, align 4
  %5 = alloca i32, align 4
  %6 = alloca i32, align 4
  %7 = alloca i32, align 4
  %8 = alloca i32, align 4
  %9 = alloca i32, align 4
  store i64 %0, ptr %3, align 8, !tbaa !12
  br label %10

10:                                               ; preds = %1
  br label %11

11:                                               ; preds = %10
  %12 = load i64, ptr %3, align 8, !tbaa !12
  %13 = icmp ugt i64 %12, 8070450532247928832
  %14 = xor i1 %13, true
  %15 = xor i1 %14, true
  %16 = zext i1 %15 to i32
  %17 = sext i32 %16 to i64
  %18 = call i64 @llvm.expect.i64(i64 %17, i64 0)
  %19 = icmp ne i64 %18, 0
  br i1 %19, label %20, label %21

20:                                               ; preds = %11
  store i32 199, ptr %2, align 4
  br label %54

21:                                               ; preds = %11
  call void @llvm.lifetime.start.p0(i64 4, ptr %4) #9
  %22 = load i64, ptr %3, align 8, !tbaa !12
  %23 = call i32 @lg_ceil(i64 noundef %22)
  store i32 %23, ptr %4, align 4, !tbaa !8
  call void @llvm.lifetime.start.p0(i64 4, ptr %5) #9
  %24 = load i32, ptr %4, align 4, !tbaa !8
  %25 = icmp ult i32 %24, 14
  br i1 %25, label %26, label %27

26:                                               ; preds = %21
  br label %30

27:                                               ; preds = %21
  %28 = load i32, ptr %4, align 4, !tbaa !8
  %29 = sub i32 %28, 14
  br label %30

30:                                               ; preds = %27, %26
  %31 = phi i32 [ 0, %26 ], [ %29, %27 ]
  store i32 %31, ptr %5, align 4, !tbaa !8
  call void @llvm.lifetime.start.p0(i64 4, ptr %6) #9
  %32 = load i32, ptr %5, align 4, !tbaa !8
  %33 = icmp eq i32 %32, 0
  br i1 %33, label %34, label %35

34:                                               ; preds = %30
  br label %39

35:                                               ; preds = %30
  %36 = load i32, ptr %5, align 4, !tbaa !8
  %37 = sub i32 %36, 1
  %38 = add i32 12, %37
  br label %39

39:                                               ; preds = %35, %34
  %40 = phi i32 [ 12, %34 ], [ %38, %35 ]
  store i32 %40, ptr %6, align 4, !tbaa !8
  call void @llvm.lifetime.start.p0(i64 4, ptr %7) #9
  %41 = load i64, ptr %3, align 8, !tbaa !12
  %42 = sub i64 %41, 1
  %43 = load i32, ptr %6, align 4, !tbaa !8
  %44 = zext i32 %43 to i64
  %45 = lshr i64 %42, %44
  %46 = and i64 %45, 3
  %47 = trunc i64 %46 to i32
  store i32 %47, ptr %7, align 4, !tbaa !8
  call void @llvm.lifetime.start.p0(i64 4, ptr %8) #9
  %48 = load i32, ptr %5, align 4, !tbaa !8
  %49 = shl i32 %48, 2
  store i32 %49, ptr %8, align 4, !tbaa !8
  call void @llvm.lifetime.start.p0(i64 4, ptr %9) #9
  %50 = load i32, ptr %8, align 4, !tbaa !8
  %51 = load i32, ptr %7, align 4, !tbaa !8
  %52 = add i32 %50, %51
  store i32 %52, ptr %9, align 4, !tbaa !8
  %53 = load i32, ptr %9, align 4, !tbaa !8
  store i32 %53, ptr %2, align 4
  call void @llvm.lifetime.end.p0(i64 4, ptr %9) #9
  call void @llvm.lifetime.end.p0(i64 4, ptr %8) #9
  call void @llvm.lifetime.end.p0(i64 4, ptr %7) #9
  call void @llvm.lifetime.end.p0(i64 4, ptr %6) #9
  call void @llvm.lifetime.end.p0(i64 4, ptr %5) #9
  call void @llvm.lifetime.end.p0(i64 4, ptr %4) #9
  br label %54

54:                                               ; preds = %39, %20
  %55 = load i32, ptr %2, align 4
  ret i32 %55
}

; Function Attrs: inlinehint nounwind uwtable
define internal i64 @hpdata_longest_free_range_get(ptr noundef %0) #3 {
  %2 = alloca ptr, align 8
  store ptr %0, ptr %2, align 8, !tbaa !27
  %3 = load ptr, ptr %2, align 8, !tbaa !27
  %4 = getelementptr inbounds nuw %struct.hpdata_s, ptr %3, i32 0, i32 16
  %5 = load i64, ptr %4, align 8, !tbaa !51
  ret i64 %5
}

; Function Attrs: alwaysinline nounwind uwtable
define internal void @psset_bin_stats_insert_remove(ptr noundef %0, ptr noundef %1, ptr noundef %2, i1 noundef zeroext %3) #5 {
  %5 = alloca ptr, align 8
  %6 = alloca ptr, align 8
  %7 = alloca ptr, align 8
  %8 = alloca i8, align 1
  %9 = alloca i64, align 8
  %10 = alloca i64, align 8
  store ptr %0, ptr %5, align 8, !tbaa !3
  store ptr %1, ptr %6, align 8, !tbaa !21
  store ptr %2, ptr %7, align 8, !tbaa !27
  %11 = zext i1 %3 to i8
  store i8 %11, ptr %8, align 1, !tbaa !28
  call void @llvm.lifetime.start.p0(i64 8, ptr %9) #9
  %12 = load i8, ptr %8, align 1, !tbaa !28, !range !30, !noundef !31
  %13 = trunc i8 %12 to i1
  %14 = select i1 %13, i64 1, i64 -1
  store i64 %14, ptr %9, align 8, !tbaa !12
  call void @llvm.lifetime.start.p0(i64 8, ptr %10) #9
  %15 = load ptr, ptr %7, align 8, !tbaa !27
  %16 = call zeroext i1 @hpdata_huge_get(ptr noundef %15)
  %17 = zext i1 %16 to i64
  store i64 %17, ptr %10, align 8, !tbaa !12
  %18 = load i64, ptr %9, align 8, !tbaa !12
  %19 = mul i64 %18, 1
  %20 = load ptr, ptr %6, align 8, !tbaa !21
  %21 = load i64, ptr %10, align 8, !tbaa !12
  %22 = getelementptr inbounds nuw %struct.psset_bin_stats_s, ptr %20, i64 %21
  %23 = getelementptr inbounds nuw %struct.psset_bin_stats_s, ptr %22, i32 0, i32 0
  %24 = load i64, ptr %23, align 8, !tbaa !23
  %25 = add i64 %24, %19
  store i64 %25, ptr %23, align 8, !tbaa !23
  %26 = load i64, ptr %9, align 8, !tbaa !12
  %27 = load ptr, ptr %7, align 8, !tbaa !27
  %28 = call i64 @hpdata_nactive_get(ptr noundef %27)
  %29 = mul i64 %26, %28
  %30 = load ptr, ptr %6, align 8, !tbaa !21
  %31 = load i64, ptr %10, align 8, !tbaa !12
  %32 = getelementptr inbounds nuw %struct.psset_bin_stats_s, ptr %30, i64 %31
  %33 = getelementptr inbounds nuw %struct.psset_bin_stats_s, ptr %32, i32 0, i32 1
  %34 = load i64, ptr %33, align 8, !tbaa !25
  %35 = add i64 %34, %29
  store i64 %35, ptr %33, align 8, !tbaa !25
  %36 = load i64, ptr %9, align 8, !tbaa !12
  %37 = load ptr, ptr %7, align 8, !tbaa !27
  %38 = call i64 @hpdata_ndirty_get(ptr noundef %37)
  %39 = mul i64 %36, %38
  %40 = load ptr, ptr %6, align 8, !tbaa !21
  %41 = load i64, ptr %10, align 8, !tbaa !12
  %42 = getelementptr inbounds nuw %struct.psset_bin_stats_s, ptr %40, i64 %41
  %43 = getelementptr inbounds nuw %struct.psset_bin_stats_s, ptr %42, i32 0, i32 2
  %44 = load i64, ptr %43, align 8, !tbaa !26
  %45 = add i64 %44, %39
  store i64 %45, ptr %43, align 8, !tbaa !26
  %46 = load i64, ptr %9, align 8, !tbaa !12
  %47 = mul i64 %46, 1
  %48 = load ptr, ptr %5, align 8, !tbaa !3
  %49 = getelementptr inbounds nuw %struct.psset_s, ptr %48, i32 0, i32 2
  %50 = getelementptr inbounds nuw %struct.psset_bin_stats_s, ptr %49, i32 0, i32 0
  %51 = load i64, ptr %50, align 8, !tbaa !44
  %52 = add i64 %51, %47
  store i64 %52, ptr %50, align 8, !tbaa !44
  %53 = load i64, ptr %9, align 8, !tbaa !12
  %54 = load ptr, ptr %7, align 8, !tbaa !27
  %55 = call i64 @hpdata_nactive_get(ptr noundef %54)
  %56 = mul i64 %53, %55
  %57 = load ptr, ptr %5, align 8, !tbaa !3
  %58 = getelementptr inbounds nuw %struct.psset_s, ptr %57, i32 0, i32 2
  %59 = getelementptr inbounds nuw %struct.psset_bin_stats_s, ptr %58, i32 0, i32 1
  %60 = load i64, ptr %59, align 8, !tbaa !47
  %61 = add i64 %60, %56
  store i64 %61, ptr %59, align 8, !tbaa !47
  %62 = load i64, ptr %9, align 8, !tbaa !12
  %63 = load ptr, ptr %7, align 8, !tbaa !27
  %64 = call i64 @hpdata_ndirty_get(ptr noundef %63)
  %65 = mul i64 %62, %64
  %66 = load ptr, ptr %5, align 8, !tbaa !3
  %67 = getelementptr inbounds nuw %struct.psset_s, ptr %66, i32 0, i32 2
  %68 = getelementptr inbounds nuw %struct.psset_bin_stats_s, ptr %67, i32 0, i32 2
  %69 = load i64, ptr %68, align 8, !tbaa !48
  %70 = add i64 %69, %65
  store i64 %70, ptr %68, align 8, !tbaa !48
  call void @llvm.lifetime.end.p0(i64 8, ptr %10) #9
  call void @llvm.lifetime.end.p0(i64 8, ptr %9) #9
  ret void
}

; Function Attrs: nounwind uwtable
define internal i32 @psset_hpdata_heap_index(ptr noundef %0) #0 {
  %2 = alloca ptr, align 8
  %3 = alloca i64, align 8
  %4 = alloca i32, align 4
  store ptr %0, ptr %2, align 8, !tbaa !27
  br label %5

5:                                                ; preds = %1
  br label %6

6:                                                ; preds = %5
  br label %7

7:                                                ; preds = %6
  br label %8

8:                                                ; preds = %7
  call void @llvm.lifetime.start.p0(i64 8, ptr %3) #9
  %9 = load ptr, ptr %2, align 8, !tbaa !27
  %10 = call i64 @hpdata_longest_free_range_get(ptr noundef %9)
  store i64 %10, ptr %3, align 8, !tbaa !12
  call void @llvm.lifetime.start.p0(i64 4, ptr %4) #9
  %11 = load i64, ptr %3, align 8, !tbaa !12
  %12 = shl i64 %11, 12
  %13 = call i64 @duckdb_je_sz_psz_quantize_floor(i64 noundef %12)
  %14 = call i32 @sz_psz2ind(i64 noundef %13)
  store i32 %14, ptr %4, align 4, !tbaa !8
  br label %15

15:                                               ; preds = %8
  br label %16

16:                                               ; preds = %15
  br label %17

17:                                               ; preds = %16
  %18 = load i32, ptr %4, align 4, !tbaa !8
  call void @llvm.lifetime.end.p0(i64 4, ptr %4) #9
  call void @llvm.lifetime.end.p0(i64 8, ptr %3) #9
  ret i32 %18
}

; Function Attrs: inlinehint nounwind uwtable
define internal zeroext i1 @hpdata_full(ptr noundef %0) #3 {
  %2 = alloca ptr, align 8
  store ptr %0, ptr %2, align 8, !tbaa !27
  %3 = load ptr, ptr %2, align 8, !tbaa !27
  %4 = getelementptr inbounds nuw %struct.hpdata_s, ptr %3, i32 0, i32 17
  %5 = load i64, ptr %4, align 8, !tbaa !43
  %6 = icmp eq i64 %5, 512
  ret i1 %6
}

; Function Attrs: nounwind uwtable
define internal void @psset_bin_stats_insert(ptr noundef %0, ptr noundef %1, ptr noundef %2) #0 {
  %4 = alloca ptr, align 8
  %5 = alloca ptr, align 8
  %6 = alloca ptr, align 8
  store ptr %0, ptr %4, align 8, !tbaa !3
  store ptr %1, ptr %5, align 8, !tbaa !21
  store ptr %2, ptr %6, align 8, !tbaa !27
  %7 = load ptr, ptr %4, align 8, !tbaa !3
  %8 = load ptr, ptr %5, align 8, !tbaa !21
  %9 = load ptr, ptr %6, align 8, !tbaa !27
  call void @psset_bin_stats_insert_remove(ptr noundef %7, ptr noundef %8, ptr noundef %9, i1 noundef zeroext true)
  ret void
}

; Function Attrs: inlinehint nounwind uwtable
define internal zeroext i1 @hpdata_empty(ptr noundef %0) #3 {
  %2 = alloca ptr, align 8
  store ptr %0, ptr %2, align 8, !tbaa !27
  %3 = load ptr, ptr %2, align 8, !tbaa !27
  %4 = getelementptr inbounds nuw %struct.hpdata_s, ptr %3, i32 0, i32 17
  %5 = load i64, ptr %4, align 8, !tbaa !43
  %6 = icmp eq i64 %5, 0
  ret i1 %6
}

; Function Attrs: nounwind uwtable
define internal void @psset_stats_insert(ptr noundef %0, ptr noundef %1) #0 {
  %3 = alloca ptr, align 8
  %4 = alloca ptr, align 8
  %5 = alloca i32, align 4
  store ptr %0, ptr %3, align 8, !tbaa !3
  store ptr %1, ptr %4, align 8, !tbaa !27
  %6 = load ptr, ptr %4, align 8, !tbaa !27
  %7 = call zeroext i1 @hpdata_empty(ptr noundef %6)
  br i1 %7, label %8, label %15

8:                                                ; preds = %2
  %9 = load ptr, ptr %3, align 8, !tbaa !3
  %10 = load ptr, ptr %3, align 8, !tbaa !3
  %11 = getelementptr inbounds nuw %struct.psset_s, ptr %10, i32 0, i32 3
  %12 = getelementptr inbounds nuw %struct.psset_stats_s, ptr %11, i32 0, i32 2
  %13 = getelementptr inbounds [2 x %struct.psset_bin_stats_s], ptr %12, i64 0, i64 0
  %14 = load ptr, ptr %4, align 8, !tbaa !27
  call void @psset_bin_stats_insert(ptr noundef %9, ptr noundef %13, ptr noundef %14)
  br label %38

15:                                               ; preds = %2
  %16 = load ptr, ptr %4, align 8, !tbaa !27
  %17 = call zeroext i1 @hpdata_full(ptr noundef %16)
  br i1 %17, label %18, label %25

18:                                               ; preds = %15
  %19 = load ptr, ptr %3, align 8, !tbaa !3
  %20 = load ptr, ptr %3, align 8, !tbaa !3
  %21 = getelementptr inbounds nuw %struct.psset_s, ptr %20, i32 0, i32 3
  %22 = getelementptr inbounds nuw %struct.psset_stats_s, ptr %21, i32 0, i32 1
  %23 = getelementptr inbounds [2 x %struct.psset_bin_stats_s], ptr %22, i64 0, i64 0
  %24 = load ptr, ptr %4, align 8, !tbaa !27
  call void @psset_bin_stats_insert(ptr noundef %19, ptr noundef %23, ptr noundef %24)
  br label %37

25:                                               ; preds = %15
  call void @llvm.lifetime.start.p0(i64 4, ptr %5) #9
  %26 = load ptr, ptr %4, align 8, !tbaa !27
  %27 = call i32 @psset_hpdata_heap_index(ptr noundef %26)
  store i32 %27, ptr %5, align 4, !tbaa !8
  %28 = load ptr, ptr %3, align 8, !tbaa !3
  %29 = load ptr, ptr %3, align 8, !tbaa !3
  %30 = getelementptr inbounds nuw %struct.psset_s, ptr %29, i32 0, i32 3
  %31 = getelementptr inbounds nuw %struct.psset_stats_s, ptr %30, i32 0, i32 0
  %32 = load i32, ptr %5, align 4, !tbaa !8
  %33 = zext i32 %32 to i64
  %34 = getelementptr inbounds nuw [64 x [2 x %struct.psset_bin_stats_s]], ptr %31, i64 0, i64 %33
  %35 = getelementptr inbounds [2 x %struct.psset_bin_stats_s], ptr %34, i64 0, i64 0
  %36 = load ptr, ptr %4, align 8, !tbaa !27
  call void @psset_bin_stats_insert(ptr noundef %28, ptr noundef %35, ptr noundef %36)
  call void @llvm.lifetime.end.p0(i64 4, ptr %5) #9
  br label %37

37:                                               ; preds = %25, %18
  br label %38

38:                                               ; preds = %37, %8
  ret void
}