; Function Attrs: nounwind uwtable
define internal fastcc void @psset_stats_insert(ptr noundef captures(none) %0, ptr noundef readonly captures(none) %1) unnamed_addr #0 {
  %3 = getelementptr i8, ptr %1, i64 104
  %.val = load i64, ptr %3, align 8, !tbaa !20
  switch i64 %.val, label %33 [
    i64 0, label %4
    i64 512, label %15
  ]

4:                                                ; preds = %2
  %5 = getelementptr inbounds nuw i8, ptr %0, i64 4176
  %6 = getelementptr i8, ptr %1, i64 16
  %.val.i = load i8, ptr %6, align 8, !tbaa !21, !range !18, !noundef !19
  %7 = zext nneg i8 %.val.i to i64
  %8 = getelementptr inbounds nuw %struct.psset_bin_stats_s, ptr %5, i64 %7
  %9 = load i64, ptr %8, align 8, !tbaa !3
  %10 = add i64 %9, 1
  store i64 %10, ptr %8, align 8, !tbaa !3
  %11 = getelementptr i8, ptr %1, i64 176
  %.val8.i = load i64, ptr %11, align 8, !tbaa !22
  %12 = getelementptr inbounds nuw i8, ptr %8, i64 16
  %13 = load i64, ptr %12, align 8, !tbaa !9
  %14 = add i64 %13, %.val8.i
  store i64 %14, ptr %12, align 8, !tbaa !9
  br label %72

15:                                               ; preds = %2
  %16 = getelementptr inbounds nuw i8, ptr %0, i64 4128
  %17 = getelementptr i8, ptr %1, i64 16
  %.val.i14 = load i8, ptr %17, align 8, !tbaa !21, !range !18, !noundef !19
  %18 = zext nneg i8 %.val.i14 to i64
  %19 = getelementptr inbounds nuw %struct.psset_bin_stats_s, ptr %16, i64 %18
  %20 = load i64, ptr %19, align 8, !tbaa !3
  %21 = add i64 %20, 1
  store i64 %21, ptr %19, align 8, !tbaa !3
  %22 = getelementptr inbounds nuw i8, ptr %19, i64 8
  %23 = load i64, ptr %22, align 8, !tbaa !8
  %24 = add i64 %23, 512
  store i64 %24, ptr %22, align 8, !tbaa !8
  %25 = getelementptr i8, ptr %1, i64 176
  %.val8.i16 = load i64, ptr %25, align 8, !tbaa !22
  %26 = add i64 %.val8.i16, -512
  %27 = getelementptr inbounds nuw i8, ptr %19, i64 16
  %28 = load i64, ptr %27, align 8, !tbaa !9
  %29 = add i64 %28, %26
  store i64 %29, ptr %27, align 8, !tbaa !9
  %30 = getelementptr inbounds nuw i8, ptr %0, i64 1032
  %31 = load i64, ptr %30, align 8, !tbaa !23
  %32 = add i64 %31, 1
  store i64 %32, ptr %30, align 8, !tbaa !23
  br label %72

33:                                               ; preds = %2
  %34 = getelementptr i8, ptr %1, i64 96
  %.val13 = load i64, ptr %34, align 8, !tbaa !30
  %35 = shl i64 %.val13, 12
  %36 = tail call i64 @duckdb_je_sz_psz_quantize_floor(i64 noundef %35) #9
  %37 = icmp ugt i64 %36, 8070450532247928832
  br i1 %37, label %psset_hpdata_heap_index.exit, label %38, !prof !31

38:                                               ; preds = %33
  %39 = icmp ne i64 %36, 0
  tail call void @llvm.assume(i1 %39)
  %40 = add nsw i64 %36, -1
  %41 = tail call range(i64 0, 65) i64 @llvm.ctlz.i64(i64 %40, i1 false)
  %42 = trunc nuw nsw i64 %41 to i32
  %43 = tail call i32 @llvm.usub.sat.i32(i32 50, i32 %42)
  %44 = icmp samesign ult i64 %36, 16385
  %45 = add nuw nsw i32 %43, 11
  %46 = zext nneg i32 %45 to i64
  %47 = select i1 %44, i64 12, i64 %46
  %48 = lshr i64 %40, %47
  %49 = trunc i64 %48 to i32
  %50 = and i32 %49, 3
  %51 = shl nuw nsw i32 %43, 2
  %52 = or disjoint i32 %50, %51
  %53 = zext nneg i32 %52 to i64
  br label %psset_hpdata_heap_index.exit

psset_hpdata_heap_index.exit:                     ; preds = %33, %38
  %.0.i.i = phi i64 [ %53, %38 ], [ 199, %33 ]
  %54 = getelementptr inbounds nuw i8, ptr %0, i64 1056
  %55 = getelementptr inbounds nuw [64 x [2 x %struct.psset_bin_stats_s]], ptr %54, i64 0, i64 %.0.i.i
  %56 = getelementptr i8, ptr %1, i64 16
  %.val.i17 = load i8, ptr %56, align 8, !tbaa !21, !range !18, !noundef !19
  %57 = zext nneg i8 %.val.i17 to i64
  %58 = getelementptr inbounds nuw %struct.psset_bin_stats_s, ptr %55, i64 %57
  %59 = load i64, ptr %58, align 8, !tbaa !3
  %60 = add i64 %59, 1
  store i64 %60, ptr %58, align 8, !tbaa !3
  %.val4.i18 = load i64, ptr %3, align 8, !tbaa !20
  %61 = getelementptr inbounds nuw i8, ptr %58, i64 8
  %62 = load i64, ptr %61, align 8, !tbaa !8
  %63 = add i64 %62, %.val4.i18
  store i64 %63, ptr %61, align 8, !tbaa !8
  %64 = getelementptr i8, ptr %1, i64 176
  %.val8.i19 = load i64, ptr %64, align 8, !tbaa !22
  %65 = sub i64 %.val8.i19, %.val4.i18
  %66 = getelementptr inbounds nuw i8, ptr %58, i64 16
  %67 = load i64, ptr %66, align 8, !tbaa !9
  %68 = add i64 %67, %65
  store i64 %68, ptr %66, align 8, !tbaa !9
  %69 = getelementptr inbounds nuw i8, ptr %0, i64 1032
  %70 = load i64, ptr %69, align 8, !tbaa !23
  %71 = add i64 %70, 1
  store i64 %71, ptr %69, align 8, !tbaa !23
  br label %72

72:                                               ; preds = %15, %psset_hpdata_heap_index.exit, %4
  %.sink26 = phi i64 [ 1040, %15 ], [ 1040, %psset_hpdata_heap_index.exit ], [ 1032, %4 ]
  %.sink25 = phi i64 [ 512, %15 ], [ %.val4.i18, %psset_hpdata_heap_index.exit ], [ 1, %4 ]
  %.sink22 = phi i64 [ %26, %15 ], [ %65, %psset_hpdata_heap_index.exit ], [ %.val8.i, %4 ]
  %73 = getelementptr inbounds nuw i8, ptr %0, i64 %.sink26
  %74 = load i64, ptr %73, align 8, !tbaa !34
  %75 = add i64 %74, %.sink25
  store i64 %75, ptr %73, align 8, !tbaa !34
  %76 = getelementptr inbounds nuw i8, ptr %0, i64 1048
  %77 = load i64, ptr %76, align 8, !tbaa !28
  %78 = add i64 %77, %.sink22
  store i64 %78, ptr %76, align 8, !tbaa !28
  ret void
}